target datalayout = "e-m:e-p270:32:32-p271:32:32-p272:64:64-i64:64-i128:128-f80:128-n8:16:32:64-S128"
target triple = "x86_64-unknown-linux-gnu"

%struct.BlockDriverState = type { i32, i8, i8, i8, i8, i8, ptr, ptr, ptr, %struct.anon, i8, [4096 x i8], [4096 x i8], [4096 x i8], [16 x i8], ptr, [4096 x i8], %struct.BlockLimits, i32, i32, i32, i32, [32 x i8], %union.anon, %union.anon.0, %union.anon.1, i32, [16 x %struct.anon.2], ptr, %struct.anon.3, ptr, ptr, %struct.anon.4, ptr, ptr, i32, ptr, i64, i64, %struct.QemuMutex, %struct.anon.5, %struct.Stat64, i32, i32, i32, i32, i32, i32, %struct.QemuMutex, %struct.anon.6, %struct.CoQueue, i8, i32, i8, %struct.CoMutex, ptr, ptr }
%struct.anon = type { ptr }
%struct.BlockLimits = type { i32, i64, i32, i64, i32, i32, i32, i64, i32, i64, i64, i32, i8, i32, i32, i32, i32, i32, i32, i32 }
%union.anon = type { %struct.QTailQLink }
%struct.QTailQLink = type { ptr, ptr }
%union.anon.0 = type { %struct.QTailQLink }
%union.anon.1 = type { %struct.QTailQLink }
%struct.anon.2 = type { ptr }
%struct.anon.3 = type { ptr }
%struct.anon.4 = type { ptr }
%struct.anon.5 = type { ptr }
%struct.Stat64 = type { i64 }
%struct.QemuMutex = type { %union.pthread_mutex_t, i8 }
%union.pthread_mutex_t = type { %struct.__pthread_mutex_s }
%struct.__pthread_mutex_s = type { i32, i32, i32, i32, i32, i16, i16, %struct.__pthread_internal_list }
%struct.__pthread_internal_list = type { ptr, ptr }
%struct.anon.6 = type { ptr }
%struct.CoQueue = type { %struct.anon.7 }
%struct.anon.7 = type { ptr, ptr }
%struct.CoMutex = type { i32, ptr, %struct.anon.8, %struct.anon.8, i32, i32, ptr }
%struct.anon.8 = type { ptr }
%struct.BdrvChild = type { ptr, ptr, ptr, i32, ptr, i64, i64, i8, i8, %struct.anon.11, %struct.anon.12 }
%struct.anon.11 = type { ptr, ptr }
%struct.anon.12 = type { ptr, ptr }
%struct.BlockStats = type { ptr, ptr, ptr, ptr, ptr, ptr, ptr }
%struct.BlockDeviceStats = type { i64, i64, i64, i64, i64, i64, i64, i64, i64, i64, i64, i64, i64, i64, i64, i64, i64, i64, i64, i8, i64, i64, i64, i64, i64, i64, i64, i64, i64, i64, i64, i8, i8, ptr, ptr, ptr, ptr, ptr }

; Function Attrs: nounwind sspstrong uwtable
define internal ptr @child_bs(ptr noundef %child) #0 {
entry:
  %child.addr = alloca ptr, align 8
  store ptr %child, ptr %child.addr, align 8
  %0 = load ptr, ptr %child.addr, align 8
  %tobool = icmp ne ptr %0, null
  br i1 %tobool, label %cond.true, label %cond.false

cond.true:                                        ; preds = %entry
  %1 = load ptr, ptr %child.addr, align 8
  %bs = getelementptr inbounds %struct.BdrvChild, ptr %1, i32 0, i32 0
  %2 = load ptr, ptr %bs, align 8
  br label %cond.end

cond.false:                                       ; preds = %entry
  br label %cond.end

cond.end:                                         ; preds = %cond.false, %cond.true
  %cond = phi ptr [ %2, %cond.true ], [ null, %cond.false ]
  ret ptr %cond
}

; Function Attrs: nounwind sspstrong uwtable
define internal ptr @bdrv_filter_or_cow_bs(ptr noundef %bs) #0 {
entry:
  %bs.addr = alloca ptr, align 8
  store ptr %bs, ptr %bs.addr, align 8
  br label %do.body

do.body:                                          ; preds = %entry
  br label %do.end

do.end:                                           ; preds = %do.body
  %0 = load ptr, ptr %bs.addr, align 8
  %call = call ptr @bdrv_filter_or_cow_child(ptr noundef %0)
  %call1 = call ptr @child_bs(ptr noundef %call)
  ret ptr %call1
}

; Function Attrs: nounwind sspstrong uwtable
define internal i64 @stat64_get(ptr noundef %s) #0 {
entry:
  %s.addr = alloca ptr, align 8
  %atomic-temp = alloca i64, align 8
  store ptr %s, ptr %s.addr, align 8
  %0 = load ptr, ptr %s.addr, align 8
  %value = getelementptr inbounds %struct.Stat64, ptr %0, i32 0, i32 0
  %1 = load atomic i64, ptr %value monotonic, align 8
  store i64 %1, ptr %atomic-temp, align 8
  %2 = load i64, ptr %atomic-temp, align 8
  ret i64 %2
}

; Function Attrs: nounwind sspstrong uwtable
define internal ptr @bdrv_query_bds_stats(ptr noundef %bs, i1 noundef zeroext %blk_level) #0 {
entry:
  %retval = alloca ptr, align 8
  %bs.addr = alloca ptr, align 8
  %blk_level.addr = alloca i8, align 1
  %parent_child = alloca ptr, align 8
  %filter_or_cow_bs = alloca ptr, align 8
  %s = alloca ptr, align 8
  %c = alloca ptr, align 8
  store ptr %bs, ptr %bs.addr, align 8
  %frombool = zext i1 %blk_level to i8
  store i8 %frombool, ptr %blk_level.addr, align 1
  store ptr null, ptr %s, align 8
  %call = call noalias ptr @g_malloc0(i64 noundef 56) #9
  store ptr %call, ptr %s, align 8
  %call1 = call noalias ptr @g_malloc0(i64 noundef 296) #9
  %0 = load ptr, ptr %s, align 8
  %stats = getelementptr inbounds %struct.BlockStats, ptr %0, i32 0, i32 3
  store ptr %call1, ptr %stats, align 8
  %1 = load ptr, ptr %bs.addr, align 8
  %tobool = icmp ne ptr %1, null
  br i1 %tobool, label %if.end, label %if.then

if.then:                                          ; preds = %entry
  %2 = load ptr, ptr %s, align 8
  store ptr %2, ptr %retval, align 8
  br label %return

if.end:                                           ; preds = %entry
  %3 = load i8, ptr %blk_level.addr, align 1
  %tobool2 = trunc i8 %3 to i1
  br i1 %tobool2, label %if.then3, label %if.end5

if.then3:                                         ; preds = %if.end
  %4 = load ptr, ptr %bs.addr, align 8
  %call4 = call ptr @bdrv_skip_implicit_filters(ptr noundef %4)
  store ptr %call4, ptr %bs.addr, align 8
  br label %if.end5

if.end5:                                          ; preds = %if.then3, %if.end
  %5 = load ptr, ptr %bs.addr, align 8
  %call6 = call ptr @bdrv_get_node_name(ptr noundef %5)
  %arrayidx = getelementptr i8, ptr %call6, i64 0
  %6 = load i8, ptr %arrayidx, align 1
  %tobool7 = icmp ne i8 %6, 0
  br i1 %tobool7, label %if.then8, label %if.end11

if.then8:                                         ; preds = %if.end5
  %7 = load ptr, ptr %bs.addr, align 8
  %call9 = call ptr @bdrv_get_node_name(ptr noundef %7)
  %call10 = call noalias ptr @g_strdup(ptr noundef %call9)
  %8 = load ptr, ptr %s, align 8
  %node_name = getelementptr inbounds %struct.BlockStats, ptr %8, i32 0, i32 2
  store ptr %call10, ptr %node_name, align 8
  br label %if.end11

if.end11:                                         ; preds = %if.then8, %if.end5
  %9 = load ptr, ptr %bs.addr, align 8
  %wr_highest_offset = getelementptr inbounds %struct.BlockDriverState, ptr %9, i32 0, i32 41
  %call12 = call i64 @stat64_get(ptr noundef %wr_highest_offset)
  %10 = load ptr, ptr %s, align 8
  %stats13 = getelementptr inbounds %struct.BlockStats, ptr %10, i32 0, i32 3
  %11 = load ptr, ptr %stats13, align 8
  %wr_highest_offset14 = getelementptr inbounds %struct.BlockDeviceStats, ptr %11, i32 0, i32 14
  store i64 %call12, ptr %wr_highest_offset14, align 8
  %12 = load ptr, ptr %bs.addr, align 8
  %call15 = call ptr @bdrv_get_specific_stats(ptr noundef %12)
  %13 = load ptr, ptr %s, align 8
  %driver_specific = getelementptr inbounds %struct.BlockStats, ptr %13, i32 0, i32 4
  store ptr %call15, ptr %driver_specific, align 8
  %14 = load ptr, ptr %bs.addr, align 8
  %call16 = call ptr @bdrv_primary_child(ptr noundef %14)
  store ptr %call16, ptr %parent_child, align 8
  %15 = load ptr, ptr %parent_child, align 8
  %tobool17 = icmp ne ptr %15, null
  br i1 %tobool17, label %lor.lhs.false, label %if.then19

lor.lhs.false:                                    ; preds = %if.end11
  %16 = load ptr, ptr %parent_child, align 8
  %role = getelementptr inbounds %struct.BdrvChild, ptr %16, i32 0, i32 3
  %17 = load i32, ptr %role, align 8
  %and = and i32 %17, 5
  %tobool18 = icmp ne i32 %and, 0
  br i1 %tobool18, label %if.end29, label %if.then19

if.then19:                                        ; preds = %lor.lhs.false, %if.end11
  store ptr null, ptr %parent_child, align 8
  %18 = load ptr, ptr %bs.addr, align 8
  %children = getelementptr inbounds %struct.BlockDriverState, ptr %18, i32 0, i32 29
  %lh_first = getelementptr inbounds %struct.anon.3, ptr %children, i32 0, i32 0
  %19 = load ptr, ptr %lh_first, align 8
  store ptr %19, ptr %c, align 8
  br label %for.cond

for.cond:                                         ; preds = %for.inc, %if.then19
  %20 = load ptr, ptr %c, align 8
  %tobool20 = icmp ne ptr %20, null
  br i1 %tobool20, label %for.body, label %for.end

for.body:                                         ; preds = %for.cond
  %21 = load ptr, ptr %c, align 8
  %role21 = getelementptr inbounds %struct.BdrvChild, ptr %21, i32 0, i32 3
  %22 = load i32, ptr %role21, align 8
  %and22 = and i32 %22, 1
  %tobool23 = icmp ne i32 %and22, 0
  br i1 %tobool23, label %if.then24, label %if.end28

if.then24:                                        ; preds = %for.body
  %23 = load ptr, ptr %parent_child, align 8
  %tobool25 = icmp ne ptr %23, null
  br i1 %tobool25, label %if.then26, label %if.end27

if.then26:                                        ; preds = %if.then24
  store ptr null, ptr %parent_child, align 8
  br label %for.end

if.end27:                                         ; preds = %if.then24
  %24 = load ptr, ptr %c, align 8
  store ptr %24, ptr %parent_child, align 8
  br label %if.end28

if.end28:                                         ; preds = %if.end27, %for.body
  br label %for.inc

for.inc:                                          ; preds = %if.end28
  %25 = load ptr, ptr %c, align 8
  %next = getelementptr inbounds %struct.BdrvChild, ptr %25, i32 0, i32 9
  %le_next = getelementptr inbounds %struct.anon.11, ptr %next, i32 0, i32 0
  %26 = load ptr, ptr %le_next, align 8
  store ptr %26, ptr %c, align 8
  br label %for.cond, !llvm.loop !12

for.end:                                          ; preds = %if.then26, %for.cond
  br label %if.end29

if.end29:                                         ; preds = %for.end, %lor.lhs.false
  %27 = load ptr, ptr %parent_child, align 8
  %tobool30 = icmp ne ptr %27, null
  br i1 %tobool30, label %if.then31, label %if.end35

if.then31:                                        ; preds = %if.end29
  %28 = load ptr, ptr %parent_child, align 8
  %bs32 = getelementptr inbounds %struct.BdrvChild, ptr %28, i32 0, i32 0
  %29 = load ptr, ptr %bs32, align 8
  %30 = load i8, ptr %blk_level.addr, align 1
  %tobool33 = trunc i8 %30 to i1
  %call34 = call ptr @bdrv_query_bds_stats(ptr noundef %29, i1 noundef zeroext %tobool33)
  %31 = load ptr, ptr %s, align 8
  %parent = getelementptr inbounds %struct.BlockStats, ptr %31, i32 0, i32 5
  store ptr %call34, ptr %parent, align 8
  br label %if.end35

if.end35:                                         ; preds = %if.then31, %if.end29
  %32 = load ptr, ptr %bs.addr, align 8
  %call36 = call ptr @bdrv_filter_or_cow_bs(ptr noundef %32)
  store ptr %call36, ptr %filter_or_cow_bs, align 8
  %33 = load i8, ptr %blk_level.addr, align 1
  %tobool37 = trunc i8 %33 to i1
  br i1 %tobool37, label %land.lhs.true, label %if.end42

land.lhs.true:                                    ; preds = %if.end35
  %34 = load ptr, ptr %filter_or_cow_bs, align 8
  %tobool38 = icmp ne ptr %34, null
  br i1 %tobool38, label %if.then39, label %if.end42

if.then39:                                        ; preds = %land.lhs.true
  %35 = load ptr, ptr %filter_or_cow_bs, align 8
  %36 = load i8, ptr %blk_level.addr, align 1
  %tobool40 = trunc i8 %36 to i1
  %call41 = call ptr @bdrv_query_bds_stats(ptr noundef %35, i1 noundef zeroext %tobool40)
  %37 = load ptr, ptr %s, align 8
  %backing = getelementptr inbounds %struct.BlockStats, ptr %37, i32 0, i32 6
  store ptr %call41, ptr %backing, align 8
  br label %if.end42

if.end42:                                         ; preds = %if.then39, %land.lhs.true, %if.end35
  %38 = load ptr, ptr %s, align 8
  store ptr %38, ptr %retval, align 8
  br label %return

return:                                           ; preds = %if.end42, %if.then
  %39 = load ptr, ptr %retval, align 8
  ret ptr %39
}