; Function Attrs: nounwind sspstrong uwtable
define internal fastcc noalias noundef ptr @bdrv_query_bds_stats(ptr noundef %bs, i1 noundef zeroext %blk_level) unnamed_addr #0 {
entry:
  %call = tail call noalias dereferenceable_or_null(56) ptr @g_malloc0(i64 noundef 56) #11
  %call1 = tail call noalias dereferenceable_or_null(296) ptr @g_malloc0(i64 noundef 296) #11
  %stats = getelementptr inbounds nuw i8, ptr %call, i64 24
  store ptr %call1, ptr %stats, align 8
  %tobool.not = icmp eq ptr %bs, null
  br i1 %tobool.not, label %common.ret43, label %if.end

if.end:                                           ; preds = %entry
  br i1 %blk_level, label %if.then3, label %if.end5

if.then3:                                         ; preds = %if.end
  %call4 = tail call ptr @bdrv_skip_implicit_filters(ptr noundef nonnull %bs) #10
  br label %if.end5

if.end5:                                          ; preds = %if.then3, %if.end
  %bs.addr.0 = phi ptr [ %call4, %if.then3 ], [ %bs, %if.end ]
  %call6 = tail call ptr @bdrv_get_node_name(ptr noundef %bs.addr.0) #10
  %0 = load i8, ptr %call6, align 1
  %tobool7.not = icmp eq i8 %0, 0
  br i1 %tobool7.not, label %if.end11, label %if.then8

if.then8:                                         ; preds = %if.end5
  %call9 = tail call ptr @bdrv_get_node_name(ptr noundef %bs.addr.0) #10
  %call10 = tail call noalias ptr @g_strdup(ptr noundef %call9) #10
  %node_name = getelementptr inbounds nuw i8, ptr %call, i64 16
  store ptr %call10, ptr %node_name, align 8
  br label %if.end11

if.end11:                                         ; preds = %if.then8, %if.end5
  %wr_highest_offset = getelementptr inbounds nuw i8, ptr %bs.addr.0, i64 16960
  %1 = load atomic i64, ptr %wr_highest_offset monotonic, align 8
  %wr_highest_offset14 = getelementptr inbounds nuw i8, ptr %call1, i64 112
  store i64 %1, ptr %wr_highest_offset14, align 8
  %call15 = tail call ptr @bdrv_get_specific_stats(ptr noundef %bs.addr.0) #10
  %driver_specific = getelementptr inbounds nuw i8, ptr %call, i64 32
  store ptr %call15, ptr %driver_specific, align 8
  %call16 = tail call ptr @bdrv_primary_child(ptr noundef %bs.addr.0) #10
  %tobool17.not = icmp eq ptr %call16, null
  br i1 %tobool17.not, label %if.then19, label %lor.lhs.false

lor.lhs.false:                                    ; preds = %if.end11
  %role = getelementptr inbounds nuw i8, ptr %call16, i64 24
  %2 = load i32, ptr %role, align 8
  %and = and i32 %2, 5
  %tobool18.not = icmp eq i32 %and, 0
  br i1 %tobool18.not, label %if.then19, label %if.then31

if.then19:                                        ; preds = %lor.lhs.false, %if.end11
  %children = getelementptr inbounds nuw i8, ptr %bs.addr.0, i64 16824
  %c.037 = load ptr, ptr %children, align 8
  %tobool20.not38 = icmp eq ptr %c.037, null
  br i1 %tobool20.not38, label %if.end35, label %for.body

for.body:                                         ; preds = %if.then19, %for.inc
  %c.040 = phi ptr [ %c.0, %for.inc ], [ %c.037, %if.then19 ]
  %parent_child.139 = phi ptr [ %parent_child.2, %for.inc ], [ null, %if.then19 ]
  %role21 = getelementptr inbounds nuw i8, ptr %c.040, i64 24
  %3 = load i32, ptr %role21, align 8
  %and22 = and i32 %3, 1
  %tobool23.not = icmp eq i32 %and22, 0
  br i1 %tobool23.not, label %for.inc, label %if.then24

if.then24:                                        ; preds = %for.body
  %tobool25.not = icmp eq ptr %parent_child.139, null
  br i1 %tobool25.not, label %for.inc, label %if.end35

for.inc:                                          ; preds = %if.then24, %for.body
  %parent_child.2 = phi ptr [ %parent_child.139, %for.body ], [ %c.040, %if.then24 ]
  %next = getelementptr inbounds nuw i8, ptr %c.040, i64 64
  %c.0 = load ptr, ptr %next, align 8
  %tobool20.not = icmp eq ptr %c.0, null
  br i1 %tobool20.not, label %if.end29, label %for.body, !llvm.loop !14

if.end29:                                         ; preds = %for.inc
  %tobool30.not = icmp eq ptr %parent_child.2, null
  br i1 %tobool30.not, label %if.end35, label %if.then31

if.then31:                                        ; preds = %lor.lhs.false, %if.end29
  %parent_child.032 = phi ptr [ %parent_child.2, %if.end29 ], [ %call16, %lor.lhs.false ]
  %4 = load ptr, ptr %parent_child.032, align 8
  %call34 = tail call fastcc ptr @bdrv_query_bds_stats(ptr noundef %4, i1 noundef zeroext %blk_level)
  %parent = getelementptr inbounds nuw i8, ptr %call, i64 40
  store ptr %call34, ptr %parent, align 8
  br label %if.end35

if.end35:                                         ; preds = %if.then24, %if.then19, %if.then31, %if.end29
  %call.i = tail call ptr @bdrv_filter_or_cow_child(ptr noundef %bs.addr.0) #10
  %tobool.not.i.i = icmp eq ptr %call.i, null
  br i1 %tobool.not.i.i, label %common.ret43, label %bdrv_filter_or_cow_bs.exit

bdrv_filter_or_cow_bs.exit:                       ; preds = %if.end35
  %5 = load ptr, ptr %call.i, align 8
  %tobool38 = icmp ne ptr %5, null
  %or.cond = select i1 %blk_level, i1 %tobool38, i1 false
  br i1 %or.cond, label %if.then39, label %common.ret43

common.ret43:                                     ; preds = %if.end35, %bdrv_filter_or_cow_bs.exit, %entry, %if.then39
  %common.ret43.op = phi ptr [ %call, %if.then39 ], [ %call, %entry ], [ %call, %bdrv_filter_or_cow_bs.exit ], [ %call, %if.end35 ]
  ret ptr %common.ret43.op

if.then39:                                        ; preds = %bdrv_filter_or_cow_bs.exit
  %call41 = tail call fastcc ptr @bdrv_query_bds_stats(ptr noundef nonnull %5, i1 noundef zeroext true)
  %backing = getelementptr inbounds nuw i8, ptr %call, i64 48
  store ptr %call41, ptr %backing, align 8
  br label %common.ret43
}